; Function Attrs: nounwind uwtable
define ptr @l_Lean_Meta_transformWithCache_visit_visitLambda___at_Lean_Elab_getFixedParamsInfo___spec__12___boxed(ptr noundef %0, ptr noundef %1, ptr noundef %2, ptr noundef %3, ptr noundef %4, ptr noundef %5, ptr noundef %6, ptr noundef %7, ptr noundef %8, ptr noundef %9, ptr noundef %10, ptr noundef %11, ptr noundef %12, ptr noundef %13) local_unnamed_addr #1 {
  %15 = ptrtoint ptr %2 to i64
  %16 = and i64 %15, 1
  %.not = icmp eq i64 %16, 0
  br i1 %.not, label %17, label %lean_dec.exit18

17:                                               ; preds = %14
  %18 = load i32, ptr %2, align 4, !tbaa !4
  %19 = icmp sgt i32 %18, 1
  br i1 %19, label %20, label %22, !prof !11

20:                                               ; preds = %17
  %21 = add nsw i32 %18, -1
  store i32 %21, ptr %2, align 4, !tbaa !4
  br label %lean_dec.exit18

22:                                               ; preds = %17
  %.not.i = icmp eq i32 %18, 0
  br i1 %.not.i, label %lean_dec.exit18, label %23

23:                                               ; preds = %22
  tail call void @lean_dec_ref_cold(ptr noundef nonnull %2) #5
  br label %lean_dec.exit18

lean_dec.exit18:                                  ; preds = %23, %22, %20, %14
  %24 = ptrtoint ptr %3 to i64
  %25 = and i64 %24, 1
  %.not21 = icmp eq i64 %25, 0
  br i1 %.not21, label %26, label %lean_dec.exit

26:                                               ; preds = %lean_dec.exit18
  %27 = load i32, ptr %3, align 4, !tbaa !4
  %28 = icmp sgt i32 %27, 1
  br i1 %28, label %29, label %31, !prof !11

29:                                               ; preds = %26
  %30 = add nsw i32 %27, -1
  store i32 %30, ptr %3, align 4, !tbaa !4
  br label %lean_dec.exit

31:                                               ; preds = %26
  %.not.i19 = icmp eq i32 %27, 0
  br i1 %.not.i19, label %lean_dec.exit, label %32

32:                                               ; preds = %31
  tail call void @lean_dec_ref_cold(ptr noundef nonnull %3) #5
  br label %lean_dec.exit

lean_dec.exit:                                    ; preds = %32, %31, %29, %lean_dec.exit18
  %33 = lshr i64 %24, 1
  %34 = trunc i64 %33 to i8
  %35 = lshr i64 %15, 1
  %36 = trunc i64 %35 to i8
  %37 = tail call ptr @l_Lean_Meta_transformWithCache_visit_visitLambda___at_Lean_Elab_getFixedParamsInfo___spec__12(ptr noundef %0, ptr noundef %1, i8 noundef zeroext %36, i8 noundef zeroext %34, ptr noundef %4, ptr noundef %5, ptr noundef %6, ptr noundef %7, ptr noundef %8, ptr noundef %9, ptr noundef %10, ptr noundef %11, ptr noundef %12, ptr noundef %13)
  ret ptr %37
}